; Function Attrs: nounwind uwtable
define dso_local range(i32 0, 2) i32 @ossl_cmp_mock_srv_set1_keyOut(ptr noundef %0, ptr noundef %1) local_unnamed_addr #0 {
  %3 = tail call ptr @OSSL_CMP_SRV_CTX_get0_custom_ctx(ptr noundef %0) #4
  %4 = icmp eq ptr %3, null
  br i1 %4, label %5, label %6

5:                                                ; preds = %2
  tail call void @ERR_new() #4
  tail call void @ERR_set_debug(ptr noundef nonnull @.str, i32 noundef 96, ptr noundef nonnull @__func__.ossl_cmp_mock_srv_set1_keyOut) #4
  tail call void (i32, i32, ptr, ...) @ERR_set_error(i32 noundef 58, i32 noundef 103, ptr noundef null) #4
  br label %12

6:                                                ; preds = %2
  %.not = icmp eq ptr %1, null
  br i1 %.not, label %9, label %7

7:                                                ; preds = %6
  %8 = tail call i32 @EVP_PKEY_up_ref(ptr noundef nonnull %1) #4
  %.not9 = icmp eq i32 %8, 0
  br i1 %.not9, label %12, label %9

9:                                                ; preds = %7, %6
  %10 = getelementptr inbounds nuw i8, ptr %3, i64 16
  %11 = load ptr, ptr %10, align 8, !tbaa !17
  tail call void @EVP_PKEY_free(ptr noundef %11) #4
  store ptr %1, ptr %10, align 8, !tbaa !17
  br label %12

12:                                               ; preds = %7, %9, %5
  %.0 = phi i32 [ 0, %5 ], [ 1, %9 ], [ 0, %7 ]
  ret i32 %.0
}